target datalayout = "e-m:e-p270:32:32-p271:32:32-p272:64:64-i64:64-i128:128-f80:128-n8:16:32:64-S128"
target triple = "x86_64-pc-linux-gnu"

%struct.jit_State = type { %struct.GCtrace, ptr, ptr, ptr, ptr, ptr, ptr, i32, i32, i32, i8, i8, %struct.IRType1, i8, %struct.FoldState, ptr, i32, i32, i32, i32, i32, i32, i32, [1 x i32], [5 x %union.TValue], [3 x %union.TValue], ptr, i32, i32, i32, i32, ptr, ptr, i32, i32, i8, ptr, i32, i32, i16, [101 x i16], [258 x i32], [15 x i32], [16 x ptr], [64 x %struct.HotPenalty], i32, [16 x %struct.BPropEntry], i32, %struct.ScEvEntry, ptr, i32, i32, i32, ptr, i32, i32, ptr, ptr, ptr, i64, i64, %union.TValue, ptr, i32, i32 }
%struct.GCtrace = type { %struct.GCRef, i8, i8, i16, i32, i32, %struct.GCRef, ptr, i32, i32, ptr, ptr, %struct.GCRef, %struct.MRef, i32, i32, ptr, i32, i16, i16, i16, i16, i16, i16, i16, i8, i8, i8, i8 }
%struct.GCRef = type { i64 }
%struct.MRef = type { i64 }
%struct.IRType1 = type { i8 }
%struct.FoldState = type { %union.IRIns, [2 x %union.IRIns], [2 x %union.IRIns] }
%union.IRIns = type { %struct.GCRef }
%struct.HotPenalty = type { %struct.MRef, i16, i16 }
%struct.BPropEntry = type { i16, i16, i32 }
%struct.ScEvEntry = type { %struct.MRef, i16, i16, i16, i16, %struct.IRType1, i8 }
%union.TValue = type { i64 }
%struct.anon.0 = type { i32, %struct.IRType1, i8, i8, i8 }
%struct.anon = type { i16, i16, i16, i16 }
%struct.GCstr = type { %struct.GCRef, i8, i8, i8, i8, i32, i32, i32 }

; Function Attrs: alwaysinline nounwind uwtable
define internal i32 @lj_getu32(ptr noundef %0) #6 {
  %2 = alloca ptr, align 8
  store ptr %0, ptr %2, align 8, !tbaa !34
  %3 = load ptr, ptr %2, align 8, !tbaa !34
  %4 = load i32, ptr %3, align 1, !tbaa !29
  ret i32 %4
}

; Function Attrs: alwaysinline nounwind uwtable
define internal zeroext i16 @lj_getu16(ptr noundef %0) #6 {
  %2 = alloca ptr, align 8
  store ptr %0, ptr %2, align 8, !tbaa !34
  %3 = load ptr, ptr %2, align 8, !tbaa !34
  %4 = load i16, ptr %3, align 1, !tbaa !29
  ret i16 %4
}

; Function Attrs: nounwind uwtable
define internal i32 @kfold_xload(ptr noundef %0, ptr noundef %1, ptr noundef %2) #0 {
  %4 = alloca i32, align 4
  %5 = alloca ptr, align 8
  %6 = alloca ptr, align 8
  %7 = alloca ptr, align 8
  %8 = alloca i32, align 4
  %9 = alloca i32, align 4
  store ptr %0, ptr %5, align 8, !tbaa !4
  store ptr %1, ptr %6, align 8, !tbaa !38
  store ptr %2, ptr %7, align 8, !tbaa !34
  call void @llvm.lifetime.start.p0(i64 4, ptr %8) #8
  %10 = load ptr, ptr %6, align 8, !tbaa !38
  %11 = getelementptr inbounds nuw %struct.anon.0, ptr %10, i32 0, i32 1
  %12 = getelementptr inbounds nuw %struct.IRType1, ptr %11, i32 0, i32 0
  %13 = load i8, ptr %12, align 4, !tbaa !29
  %14 = zext i8 %13 to i32
  %15 = and i32 %14, 31
  switch i32 %15, label %45 [
    i32 14, label %16
    i32 15, label %21
    i32 16, label %25
    i32 17, label %29
    i32 18, label %33
    i32 19, label %37
    i32 20, label %37
    i32 21, label %40
    i32 22, label %40
  ]

16:                                               ; preds = %3
  %17 = load ptr, ptr %5, align 8, !tbaa !4
  %18 = load ptr, ptr %7, align 8, !tbaa !34
  %19 = load i64, ptr %18, align 8, !tbaa !52
  %20 = call i32 @lj_ir_knum_u64(ptr noundef %17, i64 noundef %19)
  store i32 %20, ptr %4, align 4
  store i32 1, ptr %9, align 4
  br label %50

21:                                               ; preds = %3
  %22 = load ptr, ptr %7, align 8, !tbaa !34
  %23 = load i8, ptr %22, align 1, !tbaa !29
  %24 = sext i8 %23 to i32
  store i32 %24, ptr %8, align 4, !tbaa !30
  br label %46

25:                                               ; preds = %3
  %26 = load ptr, ptr %7, align 8, !tbaa !34
  %27 = load i8, ptr %26, align 1, !tbaa !29
  %28 = zext i8 %27 to i32
  store i32 %28, ptr %8, align 4, !tbaa !30
  br label %46

29:                                               ; preds = %3
  %30 = load ptr, ptr %7, align 8, !tbaa !34
  %31 = call zeroext i16 @lj_getu16(ptr noundef %30)
  %32 = sext i16 %31 to i32
  store i32 %32, ptr %8, align 4, !tbaa !30
  br label %46

33:                                               ; preds = %3
  %34 = load ptr, ptr %7, align 8, !tbaa !34
  %35 = call zeroext i16 @lj_getu16(ptr noundef %34)
  %36 = zext i16 %35 to i32
  store i32 %36, ptr %8, align 4, !tbaa !30
  br label %46

37:                                               ; preds = %3, %3
  %38 = load ptr, ptr %7, align 8, !tbaa !34
  %39 = call i32 @lj_getu32(ptr noundef %38)
  store i32 %39, ptr %8, align 4, !tbaa !30
  br label %46

40:                                               ; preds = %3, %3
  %41 = load ptr, ptr %5, align 8, !tbaa !4
  %42 = load ptr, ptr %7, align 8, !tbaa !34
  %43 = load i64, ptr %42, align 8, !tbaa !52
  %44 = call i32 @lj_ir_kint64(ptr noundef %41, i64 noundef %43)
  store i32 %44, ptr %4, align 4
  store i32 1, ptr %9, align 4
  br label %50

45:                                               ; preds = %3
  store i32 0, ptr %4, align 4
  store i32 1, ptr %9, align 4
  br label %50

46:                                               ; preds = %37, %33, %29, %25, %21
  %47 = load ptr, ptr %5, align 8, !tbaa !4
  %48 = load i32, ptr %8, align 4, !tbaa !30
  %49 = call i32 @lj_ir_kint(ptr noundef %47, i32 noundef %48)
  store i32 %49, ptr %4, align 4
  store i32 1, ptr %9, align 4
  br label %50

50:                                               ; preds = %46, %45, %40, %16
  call void @llvm.lifetime.end.p0(i64 4, ptr %8) #8
  %51 = load i32, ptr %4, align 4
  ret i32 %51
}

; Function Attrs: alwaysinline nounwind uwtable
define internal void @lj_ir_set_(ptr noundef %0, i16 noundef zeroext %1, i16 noundef zeroext %2, i16 noundef zeroext %3) #6 {
  %5 = alloca ptr, align 8
  %6 = alloca i16, align 2
  %7 = alloca i16, align 2
  %8 = alloca i16, align 2
  store ptr %0, ptr %5, align 8, !tbaa !4
  store i16 %1, ptr %6, align 2, !tbaa !35
  store i16 %2, ptr %7, align 2, !tbaa !35
  store i16 %3, ptr %8, align 2, !tbaa !35
  %9 = load i16, ptr %6, align 2, !tbaa !35
  %10 = load ptr, ptr %5, align 8, !tbaa !4
  %11 = getelementptr inbounds nuw %struct.jit_State, ptr %10, i32 0, i32 14
  %12 = getelementptr inbounds nuw %struct.FoldState, ptr %11, i32 0, i32 0
  %13 = getelementptr inbounds nuw %struct.anon, ptr %12, i32 0, i32 2
  store i16 %9, ptr %13, align 4, !tbaa !29
  %14 = load i16, ptr %7, align 2, !tbaa !35
  %15 = load ptr, ptr %5, align 8, !tbaa !4
  %16 = getelementptr inbounds nuw %struct.jit_State, ptr %15, i32 0, i32 14
  %17 = getelementptr inbounds nuw %struct.FoldState, ptr %16, i32 0, i32 0
  %18 = getelementptr inbounds nuw %struct.anon, ptr %17, i32 0, i32 0
  store i16 %14, ptr %18, align 8, !tbaa !29
  %19 = load i16, ptr %8, align 2, !tbaa !35
  %20 = load ptr, ptr %5, align 8, !tbaa !4
  %21 = getelementptr inbounds nuw %struct.jit_State, ptr %20, i32 0, i32 14
  %22 = getelementptr inbounds nuw %struct.FoldState, ptr %21, i32 0, i32 0
  %23 = getelementptr inbounds nuw %struct.anon, ptr %22, i32 0, i32 1
  store i16 %19, ptr %23, align 2, !tbaa !29
  ret void
}

; Function Attrs: nounwind uwtable
define internal i32 @fold_merge_eqne_snew_kgc(ptr noundef %0) #0 {
  %2 = alloca i32, align 4
  %3 = alloca ptr, align 8
  %4 = alloca ptr, align 8
  %5 = alloca i32, align 4
  %6 = alloca i32, align 4
  %7 = alloca i32, align 4
  %8 = alloca i32, align 4
  %9 = alloca i16, align 2
  %10 = alloca i32, align 4
  %11 = alloca i32, align 4
  store ptr %0, ptr %3, align 8, !tbaa !4
  call void @llvm.lifetime.start.p0(i64 8, ptr %4) #8
  %12 = load ptr, ptr %3, align 8, !tbaa !4
  %13 = getelementptr inbounds nuw %struct.jit_State, ptr %12, i32 0, i32 14
  %14 = getelementptr inbounds nuw %struct.FoldState, ptr %13, i32 0, i32 2
  %15 = getelementptr inbounds [2 x %union.IRIns], ptr %14, i64 0, i64 1
  %16 = getelementptr inbounds nuw %struct.GCRef, ptr %15, i32 0, i32 0
  %17 = load i64, ptr %16, align 8, !tbaa !29
  %18 = inttoptr i64 %17 to ptr
  store ptr %18, ptr %4, align 8, !tbaa !54
  call void @llvm.lifetime.start.p0(i64 4, ptr %5) #8
  %19 = load ptr, ptr %4, align 8, !tbaa !54
  %20 = getelementptr inbounds nuw %struct.GCstr, ptr %19, i32 0, i32 7
  %21 = load i32, ptr %20, align 4, !tbaa !56
  store i32 %21, ptr %5, align 4, !tbaa !30
  %22 = load ptr, ptr %3, align 8, !tbaa !4
  %23 = getelementptr inbounds nuw %struct.jit_State, ptr %22, i32 0, i32 14
  %24 = getelementptr inbounds nuw %struct.FoldState, ptr %23, i32 0, i32 1
  %25 = getelementptr inbounds [2 x %union.IRIns], ptr %24, i64 0, i64 0
  %26 = getelementptr inbounds nuw %struct.anon.0, ptr %25, i32 0, i32 1
  %27 = getelementptr inbounds nuw %struct.IRType1, ptr %26, i32 0, i32 0
  %28 = load i8, ptr %27, align 4, !tbaa !29
  %29 = zext i8 %28 to i32
  %30 = and i32 %29, 64
  %31 = icmp ne i32 %30, 0
  br i1 %31, label %32, label %33

32:                                               ; preds = %1
  store i32 0, ptr %2, align 4
  store i32 1, ptr %6, align 4
  br label %179

33:                                               ; preds = %1
  %34 = load i32, ptr %5, align 4, !tbaa !30
  %35 = icmp sle i32 %34, 4
  br i1 %35, label %36, label %178

36:                                               ; preds = %33
  call void @llvm.lifetime.start.p0(i64 4, ptr %7) #8
  %37 = load ptr, ptr %3, align 8, !tbaa !4
  %38 = getelementptr inbounds nuw %struct.jit_State, ptr %37, i32 0, i32 14
  %39 = getelementptr inbounds nuw %struct.FoldState, ptr %38, i32 0, i32 0
  %40 = getelementptr inbounds nuw %struct.anon.0, ptr %39, i32 0, i32 2
  %41 = load i8, ptr %40, align 1, !tbaa !29
  %42 = zext i8 %41 to i32
  store i32 %42, ptr %7, align 4, !tbaa !30
  call void @llvm.lifetime.start.p0(i64 4, ptr %8) #8
  %43 = load ptr, ptr %3, align 8, !tbaa !4
  %44 = getelementptr inbounds nuw %struct.jit_State, ptr %43, i32 0, i32 14
  %45 = getelementptr inbounds nuw %struct.FoldState, ptr %44, i32 0, i32 1
  %46 = getelementptr inbounds [2 x %union.IRIns], ptr %45, i64 0, i64 0
  %47 = getelementptr inbounds nuw %struct.anon, ptr %46, i32 0, i32 0
  %48 = load i16, ptr %47, align 8, !tbaa !29
  %49 = zext i16 %48 to i32
  store i32 %49, ptr %8, align 4, !tbaa !30
  %50 = load ptr, ptr %3, align 8, !tbaa !4
  %51 = getelementptr inbounds nuw %struct.jit_State, ptr %50, i32 0, i32 0
  %52 = getelementptr inbounds nuw %struct.GCtrace, ptr %51, i32 0, i32 7
  %53 = load ptr, ptr %52, align 8, !tbaa !32
  %54 = load i32, ptr %8, align 4, !tbaa !30
  %55 = zext i32 %54 to i64
  %56 = getelementptr inbounds nuw %union.IRIns, ptr %53, i64 %55
  %57 = getelementptr inbounds nuw %struct.anon.0, ptr %56, i32 0, i32 2
  %58 = load i8, ptr %57, align 1, !tbaa !29
  %59 = zext i8 %58 to i32
  %60 = icmp ne i32 %59, 64
  br i1 %60, label %61, label %62

61:                                               ; preds = %36
  store i32 0, ptr %2, align 4
  store i32 1, ptr %6, align 4
  br label %177

62:                                               ; preds = %36
  %63 = load i32, ptr %7, align 4, !tbaa !30
  %64 = icmp eq i32 %63, 8
  br i1 %64, label %65, label %79

65:                                               ; preds = %62
  %66 = load ptr, ptr %3, align 8, !tbaa !4
  %67 = load ptr, ptr %3, align 8, !tbaa !4
  %68 = getelementptr inbounds nuw %struct.jit_State, ptr %67, i32 0, i32 14
  %69 = getelementptr inbounds nuw %struct.FoldState, ptr %68, i32 0, i32 1
  %70 = getelementptr inbounds [2 x %union.IRIns], ptr %69, i64 0, i64 0
  %71 = getelementptr inbounds nuw %struct.anon, ptr %70, i32 0, i32 1
  %72 = load i16, ptr %71, align 2, !tbaa !29
  %73 = load ptr, ptr %3, align 8, !tbaa !4
  %74 = load i32, ptr %5, align 4, !tbaa !30
  %75 = call i32 @lj_ir_kint(ptr noundef %73, i32 noundef %74)
  %76 = trunc i32 %75 to i16
  call void @lj_ir_set_(ptr noundef %66, i16 noundef zeroext 2195, i16 noundef zeroext %72, i16 noundef zeroext %76)
  %77 = load ptr, ptr %3, align 8, !tbaa !4
  %78 = call i32 @lj_opt_fold(ptr noundef %77)
  br label %107

79:                                               ; preds = %62
  %80 = load ptr, ptr %3, align 8, !tbaa !4
  %81 = getelementptr inbounds nuw %struct.jit_State, ptr %80, i32 0, i32 14
  %82 = getelementptr inbounds nuw %struct.FoldState, ptr %81, i32 0, i32 1
  %83 = getelementptr inbounds [2 x %union.IRIns], ptr %82, i64 0, i64 0
  %84 = getelementptr inbounds nuw %struct.anon, ptr %83, i32 0, i32 1
  %85 = load i16, ptr %84, align 2, !tbaa !29
  %86 = zext i16 %85 to i32
  %87 = icmp slt i32 %86, 32768
  br i1 %87, label %89, label %88

88:                                               ; preds = %79
  store i32 0, ptr %2, align 4
  store i32 1, ptr %6, align 4
  br label %177

89:                                               ; preds = %79
  %90 = load ptr, ptr %3, align 8, !tbaa !4
  %91 = getelementptr inbounds nuw %struct.jit_State, ptr %90, i32 0, i32 0
  %92 = getelementptr inbounds nuw %struct.GCtrace, ptr %91, i32 0, i32 7
  %93 = load ptr, ptr %92, align 8, !tbaa !32
  %94 = load ptr, ptr %3, align 8, !tbaa !4
  %95 = getelementptr inbounds nuw %struct.jit_State, ptr %94, i32 0, i32 14
  %96 = getelementptr inbounds nuw %struct.FoldState, ptr %95, i32 0, i32 1
  %97 = getelementptr inbounds [2 x %union.IRIns], ptr %96, i64 0, i64 0
  %98 = getelementptr inbounds nuw %struct.anon, ptr %97, i32 0, i32 1
  %99 = load i16, ptr %98, align 2, !tbaa !29
  %100 = zext i16 %99 to i64
  %101 = getelementptr inbounds nuw %union.IRIns, ptr %93, i64 %100
  %102 = load i32, ptr %101, align 8, !tbaa !29
  %103 = load i32, ptr %5, align 4, !tbaa !30
  %104 = icmp ne i32 %102, %103
  br i1 %104, label %105, label %106

105:                                              ; preds = %89
  store i32 4, ptr %2, align 4
  store i32 1, ptr %6, align 4
  br label %177

106:                                              ; preds = %89
  br label %107

107:                                              ; preds = %106, %65
  %108 = load i32, ptr %5, align 4, !tbaa !30
  %109 = icmp sgt i32 %108, 0
  br i1 %109, label %110, label %176

110:                                              ; preds = %107
  call void @llvm.lifetime.start.p0(i64 2, ptr %9) #8
  %111 = load i32, ptr %5, align 4, !tbaa !30
  %112 = icmp eq i32 %111, 1
  br i1 %112, label %113, label %114

113:                                              ; preds = %110
  br label %118

114:                                              ; preds = %110
  %115 = load i32, ptr %5, align 4, !tbaa !30
  %116 = icmp eq i32 %115, 2
  %117 = select i1 %116, i32 17938, i32 17939
  br label %118

118:                                              ; preds = %114, %113
  %119 = phi i32 [ 17935, %113 ], [ %117, %114 ]
  %120 = trunc i32 %119 to i16
  store i16 %120, ptr %9, align 2, !tbaa !35
  call void @llvm.lifetime.start.p0(i64 4, ptr %10) #8
  %121 = load ptr, ptr %3, align 8, !tbaa !4
  %122 = load i16, ptr %9, align 2, !tbaa !35
  %123 = load i32, ptr %8, align 4, !tbaa !30
  %124 = trunc i32 %123 to i16
  %125 = load i32, ptr %5, align 4, !tbaa !30
  %126 = icmp sgt i32 %125, 1
  %127 = select i1 %126, i32 4, i32 0
  %128 = or i32 1, %127
  %129 = trunc i32 %128 to i16
  call void @lj_ir_set_(ptr noundef %121, i16 noundef zeroext %122, i16 noundef zeroext %124, i16 noundef zeroext %129)
  %130 = load ptr, ptr %3, align 8, !tbaa !4
  %131 = call i32 @lj_opt_fold(ptr noundef %130)
  store i32 %131, ptr %10, align 4, !tbaa !30
  call void @llvm.lifetime.start.p0(i64 4, ptr %11) #8
  %132 = load ptr, ptr %3, align 8, !tbaa !4
  %133 = load ptr, ptr %3, align 8, !tbaa !4
  %134 = getelementptr inbounds nuw %struct.jit_State, ptr %133, i32 0, i32 0
  %135 = getelementptr inbounds nuw %struct.GCtrace, ptr %134, i32 0, i32 7
  %136 = load ptr, ptr %135, align 8, !tbaa !32
  %137 = load i32, ptr %10, align 4, !tbaa !30
  %138 = trunc i32 %137 to i16
  %139 = zext i16 %138 to i64
  %140 = getelementptr inbounds nuw %union.IRIns, ptr %136, i64 %139
  %141 = load ptr, ptr %4, align 8, !tbaa !54
  %142 = getelementptr inbounds %struct.GCstr, ptr %141, i64 1
  %143 = call i32 @kfold_xload(ptr noundef %132, ptr noundef %140, ptr noundef %142)
  store i32 %143, ptr %11, align 4, !tbaa !30
  %144 = load i32, ptr %5, align 4, !tbaa !30
  %145 = icmp eq i32 %144, 3
  br i1 %145, label %146, label %155

146:                                              ; preds = %118
  %147 = load ptr, ptr %3, align 8, !tbaa !4
  %148 = load i32, ptr %10, align 4, !tbaa !30
  %149 = trunc i32 %148 to i16
  %150 = load ptr, ptr %3, align 8, !tbaa !4
  %151 = call i32 @lj_ir_kint(ptr noundef %150, i32 noundef 16777215)
  %152 = trunc i32 %151 to i16
  call void @lj_ir_set_(ptr noundef %147, i16 noundef zeroext 8467, i16 noundef zeroext %149, i16 noundef zeroext %152)
  %153 = load ptr, ptr %3, align 8, !tbaa !4
  %154 = call i32 @lj_opt_fold(ptr noundef %153)
  store i32 %154, ptr %10, align 4, !tbaa !30
  br label %155

155:                                              ; preds = %146, %118
  %156 = load i32, ptr %10, align 4, !tbaa !30
  %157 = trunc i32 %156 to i16
  %158 = load ptr, ptr %3, align 8, !tbaa !4
  %159 = getelementptr inbounds nuw %struct.jit_State, ptr %158, i32 0, i32 14
  %160 = getelementptr inbounds nuw %struct.FoldState, ptr %159, i32 0, i32 0
  %161 = getelementptr inbounds nuw %struct.anon, ptr %160, i32 0, i32 0
  store i16 %157, ptr %161, align 8, !tbaa !29
  %162 = load i32, ptr %11, align 4, !tbaa !30
  %163 = trunc i32 %162 to i16
  %164 = load ptr, ptr %3, align 8, !tbaa !4
  %165 = getelementptr inbounds nuw %struct.jit_State, ptr %164, i32 0, i32 14
  %166 = getelementptr inbounds nuw %struct.FoldState, ptr %165, i32 0, i32 0
  %167 = getelementptr inbounds nuw %struct.anon, ptr %166, i32 0, i32 1
  store i16 %163, ptr %167, align 2, !tbaa !29
  %168 = load i32, ptr %7, align 4, !tbaa !30
  %169 = shl i32 %168, 8
  %170 = or i32 %169, 147
  %171 = trunc i32 %170 to i16
  %172 = load ptr, ptr %3, align 8, !tbaa !4
  %173 = getelementptr inbounds nuw %struct.jit_State, ptr %172, i32 0, i32 14
  %174 = getelementptr inbounds nuw %struct.FoldState, ptr %173, i32 0, i32 0
  %175 = getelementptr inbounds nuw %struct.anon, ptr %174, i32 0, i32 2
  store i16 %171, ptr %175, align 4, !tbaa !29
  store i32 1, ptr %2, align 4
  store i32 1, ptr %6, align 4
  call void @llvm.lifetime.end.p0(i64 4, ptr %11) #8
  call void @llvm.lifetime.end.p0(i64 4, ptr %10) #8
  call void @llvm.lifetime.end.p0(i64 2, ptr %9) #8
  br label %177

176:                                              ; preds = %107
  store i32 4, ptr %2, align 4
  store i32 1, ptr %6, align 4
  br label %177

177:                                              ; preds = %176, %155, %105, %88, %61
  call void @llvm.lifetime.end.p0(i64 4, ptr %8) #8
  call void @llvm.lifetime.end.p0(i64 4, ptr %7) #8
  br label %179

178:                                              ; preds = %33
  store i32 0, ptr %2, align 4
  store i32 1, ptr %6, align 4
  br label %179

179:                                              ; preds = %178, %177, %32
  call void @llvm.lifetime.end.p0(i64 4, ptr %5) #8
  call void @llvm.lifetime.end.p0(i64 8, ptr %4) #8
  %180 = load i32, ptr %2, align 4
  ret i32 %180
}