; Function Attrs: nounwind uwtable
define internal range(i32 0, 5) i32 @fold_merge_eqne_snew_kgc(ptr noundef %0) #0 {
  %2 = getelementptr inbounds nuw i8, ptr %0, i64 184
  %3 = getelementptr inbounds nuw i8, ptr %0, i64 216
  %4 = load i64, ptr %3, align 8, !tbaa !28
  %5 = inttoptr i64 %4 to ptr
  %6 = getelementptr inbounds nuw i8, ptr %5, i64 20
  %7 = load i32, ptr %6, align 4, !tbaa !45
  %8 = getelementptr inbounds nuw i8, ptr %0, i64 196
  %9 = load i8, ptr %8, align 4, !tbaa !28
  %10 = and i8 %9, 64
  %.not = icmp eq i8 %10, 0
  %11 = icmp slt i32 %7, 5
  %or.cond = select i1 %.not, i1 %11, i1 false
  br i1 %or.cond, label %12, label %89

12:                                               ; preds = %1
  %13 = getelementptr inbounds nuw i8, ptr %0, i64 192
  %14 = getelementptr inbounds nuw i8, ptr %0, i64 189
  %15 = load i8, ptr %14, align 1, !tbaa !28
  %16 = zext i8 %15 to i16
  %17 = load i16, ptr %13, align 8, !tbaa !28
  %18 = getelementptr inbounds nuw i8, ptr %0, i64 32
  %19 = load ptr, ptr %18, align 8, !tbaa !30
  %20 = zext i16 %17 to i64
  %21 = getelementptr inbounds nuw %union.IRIns, ptr %19, i64 %20
  %22 = getelementptr inbounds nuw i8, ptr %21, i64 5
  %23 = load i8, ptr %22, align 1, !tbaa !28
  %.not43 = icmp eq i8 %23, 64
  br i1 %.not43, label %24, label %89

24:                                               ; preds = %12
  %25 = icmp eq i8 %15, 8
  %26 = getelementptr inbounds nuw i8, ptr %0, i64 194
  %27 = load i16, ptr %26, align 2, !tbaa !28
  br i1 %25, label %28, label %34

28:                                               ; preds = %24
  %29 = tail call i32 @lj_ir_kint(ptr noundef nonnull %0, i32 noundef %7) #12
  %30 = trunc i32 %29 to i16
  %31 = getelementptr inbounds nuw i8, ptr %0, i64 188
  store i16 2195, ptr %31, align 4, !tbaa !28
  store i16 %27, ptr %2, align 8, !tbaa !28
  %32 = getelementptr inbounds nuw i8, ptr %0, i64 186
  store i16 %30, ptr %32, align 2, !tbaa !28
  %33 = tail call i32 @lj_opt_fold(ptr noundef nonnull %0)
  %.old = icmp sgt i32 %7, 0
  br i1 %.old, label %41, label %89

34:                                               ; preds = %24
  %35 = icmp sgt i16 %27, -1
  br i1 %35, label %36, label %89

36:                                               ; preds = %34
  %37 = zext nneg i16 %27 to i64
  %38 = getelementptr inbounds nuw %union.IRIns, ptr %19, i64 %37
  %39 = load i32, ptr %38, align 8, !tbaa !28
  %.not44 = icmp eq i32 %39, %7
  %40 = icmp sgt i32 %7, 0
  %or.cond46 = and i1 %40, %.not44
  br i1 %or.cond46, label %41, label %89

41:                                               ; preds = %36, %28
  %42 = icmp eq i32 %7, 1
  %43 = icmp eq i32 %7, 2
  %44 = select i1 %43, i16 17938, i16 17939
  %45 = select i1 %42, i16 17935, i16 %44
  %46 = select i1 %42, i16 1, i16 5
  %47 = getelementptr inbounds nuw i8, ptr %0, i64 188
  store i16 %45, ptr %47, align 4, !tbaa !28
  store i16 %17, ptr %2, align 8, !tbaa !28
  %48 = getelementptr inbounds nuw i8, ptr %0, i64 186
  store i16 %46, ptr %48, align 2, !tbaa !28
  %49 = tail call i32 @lj_opt_fold(ptr noundef nonnull %0)
  %50 = load ptr, ptr %18, align 8, !tbaa !30
  %.mask = and i32 %49, 65535
  %51 = zext nneg i32 %.mask to i64
  %52 = getelementptr inbounds nuw %union.IRIns, ptr %50, i64 %51
  %53 = getelementptr inbounds nuw i8, ptr %5, i64 24
  %54 = getelementptr i8, ptr %52, i64 4
  %.val = load i8, ptr %54, align 4, !tbaa !28
  %55 = and i8 %.val, 31
  switch i8 %55, label %kfold_xload.exit [
    i8 14, label %56
    i8 15, label %59
    i8 16, label %62
    i8 17, label %65
    i8 18, label %68
    i8 19, label %71
    i8 20, label %71
    i8 21, label %73
    i8 22, label %73
  ]

56:                                               ; preds = %41
  %57 = load i64, ptr %53, align 8, !tbaa !80
  %58 = tail call i32 @lj_ir_knum_u64(ptr noundef nonnull %0, i64 noundef %57) #12
  br label %kfold_xload.exit

59:                                               ; preds = %41
  %60 = load i8, ptr %53, align 1, !tbaa !28
  %61 = sext i8 %60 to i32
  br label %76

62:                                               ; preds = %41
  %63 = load i8, ptr %53, align 1, !tbaa !28
  %64 = zext i8 %63 to i32
  br label %76

65:                                               ; preds = %41
  %66 = load i16, ptr %53, align 1, !tbaa !28
  %67 = sext i16 %66 to i32
  br label %76

68:                                               ; preds = %41
  %69 = load i16, ptr %53, align 1, !tbaa !28
  %70 = zext i16 %69 to i32
  br label %76

71:                                               ; preds = %41, %41
  %72 = load i32, ptr %53, align 1, !tbaa !28
  br label %76

73:                                               ; preds = %41, %41
  %74 = load i64, ptr %53, align 8, !tbaa !80
  %75 = tail call i32 @lj_ir_kint64(ptr noundef nonnull %0, i64 noundef %74) #12
  br label %kfold_xload.exit

76:                                               ; preds = %71, %68, %65, %62, %59
  %.0.i = phi i32 [ %72, %71 ], [ %70, %68 ], [ %67, %65 ], [ %64, %62 ], [ %61, %59 ]
  %77 = tail call i32 @lj_ir_kint(ptr noundef nonnull %0, i32 noundef %.0.i) #12
  br label %kfold_xload.exit

kfold_xload.exit:                                 ; preds = %41, %56, %73, %76
  %.012.i = phi i32 [ %75, %73 ], [ %77, %76 ], [ %58, %56 ], [ 0, %41 ]
  %78 = icmp eq i32 %7, 3
  br i1 %78, label %79, label %84

79:                                               ; preds = %kfold_xload.exit
  %80 = trunc i32 %49 to i16
  %81 = tail call i32 @lj_ir_kint(ptr noundef nonnull %0, i32 noundef 16777215) #12
  %82 = trunc i32 %81 to i16
  store i16 8467, ptr %47, align 4, !tbaa !28
  store i16 %80, ptr %2, align 8, !tbaa !28
  store i16 %82, ptr %48, align 2, !tbaa !28
  %83 = tail call i32 @lj_opt_fold(ptr noundef nonnull %0)
  br label %84

84:                                               ; preds = %79, %kfold_xload.exit
  %.041 = phi i32 [ %83, %79 ], [ %49, %kfold_xload.exit ]
  %85 = trunc i32 %.041 to i16
  store i16 %85, ptr %2, align 8, !tbaa !28
  %86 = trunc i32 %.012.i to i16
  store i16 %86, ptr %48, align 2, !tbaa !28
  %87 = shl nuw i16 %16, 8
  %88 = or disjoint i16 %87, 147
  store i16 %88, ptr %47, align 4, !tbaa !28
  br label %89

89:                                               ; preds = %84, %12, %34, %36, %28, %1
  %.0 = phi i32 [ 0, %1 ], [ 1, %84 ], [ 0, %12 ], [ 0, %34 ], [ 4, %36 ], [ 4, %28 ]
  ret i32 %.0
}